target datalayout = "e-m:e-p270:32:32-p271:32:32-p272:64:64-i64:64-i128:128-f80:128-n8:16:32:64-S128"
target triple = "x86_64-pc-linux-gnu"

%struct.pos = type { [4 x [4 x i16]], [4 x i16], [4 x [4 x i8]], [4 x i32], [50 x [4 x i16]], [50 x i32], [50 x %struct.moveType], i32, i32, [4 x %struct.highCardType], [4 x %struct.highCardType] }
%struct.moveType = type { i32, i32, i32, i32 }
%struct.highCardType = type { i32, i32 }
%struct.ThreadData = type { [4 x i32], i32, i8, [4 x [4 x i16]], i32, %struct.pos, i8, [50 x [4 x i16]], [13 x %struct.WinnersType], [14 x %struct.moveType], [50 x %struct.moveType], [50 x %struct.moveType], double, i32, i32, [8192 x %struct.relRanksType], ptr, %class.Moves }
%struct.WinnersType = type { i32, [4 x %struct.WinnerEntryType] }
%struct.WinnerEntryType = type { i32, i32, i32, i32, i32 }
%struct.relRanksType = type { [15 x [4 x %struct.absRankType]] }
%struct.absRankType = type { i8, i8 }
%class.Moves = type { i32, i32, i32, i32, i32, i32, i32, i32, i32, [13 x %"struct.Moves::trackType"], ptr, [13 x [4 x %struct.movePlyType]], ptr, [13 x [4 x i32]], [13 x %"class.std::__cxx11::basic_string"], [13 x [4 x %"struct.Moves::moveStatType"]], [13 x [4 x %"struct.Moves::moveStatType"]], [13 x [4 x %"struct.Moves::moveStatsType"]], [13 x [4 x %"struct.Moves::moveStatsType"]], %"struct.Moves::moveStatsType", %"struct.Moves::moveStatsType", [16 x { i64, i64 }] }
%"struct.Moves::trackType" = type { i32, i32, [4 x i32], [4 x i32], %struct.trickDataType, [4 x %struct.extCard], [4 x i32], [4 x [4 x i32]], [4 x i32] }
%struct.trickDataType = type { [4 x i32], i32, i32, i32, i32, i32 }
%struct.extCard = type { i32, i32, i32 }
%struct.movePlyType = type { [14 x %struct.moveType], i32, i32 }
%"class.std::__cxx11::basic_string" = type { %"struct.std::__cxx11::basic_string<char>::_Alloc_hider", i64, %union.anon }
%"struct.std::__cxx11::basic_string<char>::_Alloc_hider" = type { ptr }
%union.anon = type { i64, [8 x i8] }
%"struct.Moves::moveStatType" = type { i32, i32, i32, i32 }
%"struct.Moves::moveStatsType" = type { i32, [13 x %"struct.Moves::moveStatType"] }

@bitMapRank = external global [16 x i16], align 16
@_ZL9handDelta = internal constant [4 x i32] [i32 256, i32 16, i32 1, i32 0], align 16

; Function Attrs: mustprogress uwtable
define void @_Z11Make3SimpleP3posPtiPK8moveTypeP10ThreadData(ptr noundef %0, ptr noundef %1, i32 noundef %2, ptr noundef %3, ptr noundef %4) #4 {
  %6 = alloca ptr, align 8
  %7 = alloca ptr, align 8
  %8 = alloca i32, align 4
  %9 = alloca ptr, align 8
  %10 = alloca ptr, align 8
  %11 = alloca ptr, align 8
  %12 = alloca i32, align 4
  %13 = alloca i32, align 4
  %14 = alloca i32, align 4
  %15 = alloca i32, align 4
  %16 = alloca i32, align 4
  %17 = alloca i32, align 4
  store ptr %0, ptr %6, align 8
  store ptr %1, ptr %7, align 8
  store i32 %2, ptr %8, align 4
  store ptr %3, ptr %9, align 8
  store ptr %4, ptr %10, align 8
  %18 = load ptr, ptr %10, align 8
  %19 = getelementptr inbounds nuw %struct.ThreadData, ptr %18, i32 0, i32 17
  %20 = load i32, ptr %8, align 4
  %21 = add nsw i32 %20, 3
  %22 = ashr i32 %21, 2
  %23 = call noundef nonnull align 4 dereferenceable(36) ptr @_ZN5Moves12GetTrickDataEi(ptr noundef nonnull align 8 dereferenceable(39992) %19, i32 noundef %22)
  store ptr %23, ptr %11, align 8
  %24 = load ptr, ptr %6, align 8
  %25 = getelementptr inbounds nuw %struct.pos, ptr %24, i32 0, i32 5
  %26 = load i32, ptr %8, align 4
  %27 = sext i32 %26 to i64
  %28 = getelementptr inbounds [50 x i32], ptr %25, i64 0, i64 %27
  %29 = load i32, ptr %28, align 4
  store i32 %29, ptr %12, align 4
  %30 = load i32, ptr %12, align 4
  %31 = load ptr, ptr %11, align 8
  %32 = getelementptr inbounds nuw %struct.trickDataType, ptr %31, i32 0, i32 4
  %33 = load i32, ptr %32, align 4
  %34 = add nsw i32 %30, %33
  %35 = and i32 %34, 3
  %36 = load ptr, ptr %6, align 8
  %37 = getelementptr inbounds nuw %struct.pos, ptr %36, i32 0, i32 5
  %38 = load i32, ptr %8, align 4
  %39 = sub nsw i32 %38, 1
  %40 = sext i32 %39 to i64
  %41 = getelementptr inbounds [50 x i32], ptr %37, i64 0, i64 %40
  store i32 %35, ptr %41, align 4
  store i32 0, ptr %13, align 4
  br label %42

42:                                               ; preds = %50, %5
  %43 = load i32, ptr %13, align 4
  %44 = icmp slt i32 %43, 4
  br i1 %44, label %45, label %53

45:                                               ; preds = %42
  %46 = load ptr, ptr %7, align 8
  %47 = load i32, ptr %13, align 4
  %48 = sext i32 %47 to i64
  %49 = getelementptr inbounds i16, ptr %46, i64 %48
  store i16 0, ptr %49, align 2
  br label %50

50:                                               ; preds = %45
  %51 = load i32, ptr %13, align 4
  %52 = add nsw i32 %51, 1
  store i32 %52, ptr %13, align 4
  br label %42, !llvm.loop !41

53:                                               ; preds = %42
  %54 = load ptr, ptr %11, align 8
  %55 = getelementptr inbounds nuw %struct.trickDataType, ptr %54, i32 0, i32 2
  %56 = load i32, ptr %55, align 4
  store i32 %56, ptr %14, align 4
  %57 = load ptr, ptr %11, align 8
  %58 = getelementptr inbounds nuw %struct.trickDataType, ptr %57, i32 0, i32 0
  %59 = load i32, ptr %14, align 4
  %60 = sext i32 %59 to i64
  %61 = getelementptr inbounds [4 x i32], ptr %58, i64 0, i64 %60
  %62 = load i32, ptr %61, align 4
  %63 = icmp sge i32 %62, 2
  br i1 %63, label %64, label %82

64:                                               ; preds = %53
  %65 = load ptr, ptr %11, align 8
  %66 = getelementptr inbounds nuw %struct.trickDataType, ptr %65, i32 0, i32 1
  %67 = load i32, ptr %66, align 4
  store i32 %67, ptr %15, align 4
  %68 = load i32, ptr %15, align 4
  %69 = sext i32 %68 to i64
  %70 = getelementptr inbounds [16 x i16], ptr @bitMapRank, i64 0, i64 %69
  %71 = load i16, ptr %70, align 2
  %72 = zext i16 %71 to i32
  %73 = load ptr, ptr %11, align 8
  %74 = getelementptr inbounds nuw %struct.trickDataType, ptr %73, i32 0, i32 3
  %75 = load i32, ptr %74, align 4
  %76 = or i32 %72, %75
  %77 = trunc i32 %76 to i16
  %78 = load ptr, ptr %7, align 8
  %79 = load i32, ptr %14, align 4
  %80 = sext i32 %79 to i64
  %81 = getelementptr inbounds i16, ptr %78, i64 %80
  store i16 %77, ptr %81, align 2
  br label %82

82:                                               ; preds = %64, %53
  %83 = load i32, ptr %12, align 4
  %84 = add nsw i32 %83, 3
  %85 = and i32 %84, 3
  store i32 %85, ptr %16, align 4
  %86 = load ptr, ptr %9, align 8
  %87 = getelementptr inbounds nuw %struct.moveType, ptr %86, i32 0, i32 1
  %88 = load i32, ptr %87, align 4
  store i32 %88, ptr %17, align 4
  %89 = load ptr, ptr %9, align 8
  %90 = getelementptr inbounds nuw %struct.moveType, ptr %89, i32 0, i32 0
  %91 = load i32, ptr %90, align 4
  store i32 %91, ptr %14, align 4
  %92 = load i32, ptr %17, align 4
  %93 = sext i32 %92 to i64
  %94 = getelementptr inbounds [16 x i16], ptr @bitMapRank, i64 0, i64 %93
  %95 = load i16, ptr %94, align 2
  %96 = zext i16 %95 to i32
  %97 = load ptr, ptr %6, align 8
  %98 = getelementptr inbounds nuw %struct.pos, ptr %97, i32 0, i32 1
  %99 = load i32, ptr %14, align 4
  %100 = sext i32 %99 to i64
  %101 = getelementptr inbounds [4 x i16], ptr %98, i64 0, i64 %100
  %102 = load i16, ptr %101, align 2
  %103 = zext i16 %102 to i32
  %104 = xor i32 %103, %96
  %105 = trunc i32 %104 to i16
  store i16 %105, ptr %101, align 2
  %106 = load i32, ptr %14, align 4
  %107 = sext i32 %106 to i64
  %108 = getelementptr inbounds [4 x i32], ptr @_ZL9handDelta, i64 0, i64 %107
  %109 = load i32, ptr %108, align 4
  %110 = load ptr, ptr %6, align 8
  %111 = getelementptr inbounds nuw %struct.pos, ptr %110, i32 0, i32 3
  %112 = load i32, ptr %16, align 4
  %113 = sext i32 %112 to i64
  %114 = getelementptr inbounds [4 x i32], ptr %111, i64 0, i64 %113
  %115 = load i32, ptr %114, align 4
  %116 = sub nsw i32 %115, %109
  store i32 %116, ptr %114, align 4
  ret void
}