; Function Attrs: mustprogress uwtable
define void @_Z11Make3SimpleP3posPtiPK8moveTypeP10ThreadData(ptr nocapture noundef %0, ptr nocapture noundef writeonly %1, i32 noundef %2, ptr nocapture noundef readonly %3, ptr noundef %4) local_unnamed_addr #3 {
  %6 = getelementptr inbounds nuw i8, ptr %4, i64 987992
  %7 = add nsw i32 %2, 3
  %8 = ashr i32 %7, 2
  %9 = tail call noundef nonnull align 4 dereferenceable(36) ptr @_ZN5Moves12GetTrickDataEi(ptr noundef nonnull align 8 dereferenceable(39992) %6, i32 noundef %8)
  %10 = getelementptr inbounds nuw i8, ptr %0, i64 472
  %11 = sext i32 %2 to i64
  %12 = getelementptr inbounds [50 x i32], ptr %10, i64 0, i64 %11
  %13 = load i32, ptr %12, align 4
  %14 = getelementptr inbounds nuw i8, ptr %9, i64 28
  %15 = load i32, ptr %14, align 4
  %16 = add nsw i32 %15, %13
  %17 = and i32 %16, 3
  %18 = add nsw i32 %2, -1
  %19 = sext i32 %18 to i64
  %20 = getelementptr inbounds [50 x i32], ptr %10, i64 0, i64 %19
  store i32 %17, ptr %20, align 4
  store i64 0, ptr %1, align 2
  %21 = getelementptr inbounds nuw i8, ptr %9, i64 20
  %22 = load i32, ptr %21, align 4
  %23 = sext i32 %22 to i64
  %24 = getelementptr inbounds [4 x i32], ptr %9, i64 0, i64 %23
  %25 = load i32, ptr %24, align 4
  %26 = icmp sgt i32 %25, 1
  br i1 %26, label %27, label %38

27:                                               ; preds = %5
  %28 = getelementptr inbounds nuw i8, ptr %9, i64 16
  %29 = load i32, ptr %28, align 4
  %30 = sext i32 %29 to i64
  %31 = getelementptr inbounds [16 x i16], ptr @bitMapRank, i64 0, i64 %30
  %32 = load i16, ptr %31, align 2
  %33 = getelementptr inbounds nuw i8, ptr %9, i64 24
  %34 = load i32, ptr %33, align 4
  %35 = trunc i32 %34 to i16
  %36 = or i16 %32, %35
  %37 = getelementptr inbounds i16, ptr %1, i64 %23
  store i16 %36, ptr %37, align 2
  br label %38

38:                                               ; preds = %27, %5
  %39 = add nsw i32 %13, 3
  %40 = and i32 %39, 3
  %41 = getelementptr inbounds nuw i8, ptr %3, i64 4
  %42 = load i32, ptr %41, align 4
  %43 = load i32, ptr %3, align 4
  %44 = sext i32 %42 to i64
  %45 = getelementptr inbounds [16 x i16], ptr @bitMapRank, i64 0, i64 %44
  %46 = load i16, ptr %45, align 2
  %47 = getelementptr inbounds nuw i8, ptr %0, i64 32
  %48 = sext i32 %43 to i64
  %49 = getelementptr inbounds [4 x i16], ptr %47, i64 0, i64 %48
  %50 = load i16, ptr %49, align 2
  %51 = xor i16 %50, %46
  store i16 %51, ptr %49, align 2
  %52 = getelementptr inbounds [4 x i32], ptr @_ZL9handDelta, i64 0, i64 %48
  %53 = load i32, ptr %52, align 4
  %54 = getelementptr inbounds nuw i8, ptr %0, i64 56
  %55 = zext nneg i32 %40 to i64
  %56 = getelementptr inbounds [4 x i32], ptr %54, i64 0, i64 %55
  %57 = load i32, ptr %56, align 4
  %58 = sub nsw i32 %57, %53
  store i32 %58, ptr %56, align 4
  ret void
}